; Function Attrs: mustprogress nofree norecurse nosync nounwind willreturn memory(read, inaccessiblemem: none) uwtable
define hidden noundef double @_ZN4perf10Regression7getElemERN2cv3MatEiii(ptr noundef nonnull readonly align 8 captures(none) dereferenceable(96) %0, i32 noundef %1, i32 noundef %2, i32 noundef %3) local_unnamed_addr #11 align 2 {
  %5 = load i32, ptr %0, align 8, !tbaa !125
  %6 = and i32 %5, 7
  switch i32 %6, label %default.unreachable [
    i32 0, label %7
    i32 1, label %25
    i32 2, label %43
    i32 3, label %61
    i32 4, label %79
    i32 5, label %97
    i32 6, label %115
    i32 7, label %132
  ]

7:                                                ; preds = %4
  %8 = getelementptr inbounds nuw i8, ptr %0, i64 16
  %9 = load ptr, ptr %8, align 8, !tbaa !132
  %10 = sext i32 %1 to i64
  %11 = getelementptr inbounds nuw i8, ptr %0, i64 72
  %12 = load ptr, ptr %11, align 8, !tbaa !133
  %13 = load i64, ptr %12, align 8, !tbaa !64
  %14 = mul i64 %13, %10
  %15 = getelementptr inbounds nuw i8, ptr %9, i64 %14
  %16 = sext i32 %2 to i64
  %17 = getelementptr inbounds nuw i8, ptr %12, i64 8
  %18 = load i64, ptr %17, align 8, !tbaa !64
  %19 = mul i64 %18, %16
  %20 = getelementptr inbounds nuw i8, ptr %15, i64 %19
  %21 = sext i32 %3 to i64
  %22 = getelementptr inbounds i8, ptr %20, i64 %21
  %23 = load i8, ptr %22, align 1, !tbaa !45
  %24 = uitofp i8 %23 to double
  br label %132

25:                                               ; preds = %4
  %26 = getelementptr inbounds nuw i8, ptr %0, i64 16
  %27 = load ptr, ptr %26, align 8, !tbaa !132
  %28 = sext i32 %1 to i64
  %29 = getelementptr inbounds nuw i8, ptr %0, i64 72
  %30 = load ptr, ptr %29, align 8, !tbaa !133
  %31 = load i64, ptr %30, align 8, !tbaa !64
  %32 = mul i64 %31, %28
  %33 = getelementptr inbounds nuw i8, ptr %27, i64 %32
  %34 = sext i32 %2 to i64
  %35 = getelementptr inbounds nuw i8, ptr %30, i64 8
  %36 = load i64, ptr %35, align 8, !tbaa !64
  %37 = mul i64 %36, %34
  %38 = getelementptr inbounds nuw i8, ptr %33, i64 %37
  %39 = sext i32 %3 to i64
  %40 = getelementptr inbounds i8, ptr %38, i64 %39
  %41 = load i8, ptr %40, align 1, !tbaa !45
  %42 = sitofp i8 %41 to double
  br label %132

43:                                               ; preds = %4
  %44 = getelementptr inbounds nuw i8, ptr %0, i64 16
  %45 = load ptr, ptr %44, align 8, !tbaa !132
  %46 = sext i32 %1 to i64
  %47 = getelementptr inbounds nuw i8, ptr %0, i64 72
  %48 = load ptr, ptr %47, align 8, !tbaa !133
  %49 = load i64, ptr %48, align 8, !tbaa !64
  %50 = mul i64 %49, %46
  %51 = getelementptr inbounds nuw i8, ptr %45, i64 %50
  %52 = sext i32 %2 to i64
  %53 = getelementptr inbounds nuw i8, ptr %48, i64 8
  %54 = load i64, ptr %53, align 8, !tbaa !64
  %55 = mul i64 %54, %52
  %56 = getelementptr inbounds nuw i8, ptr %51, i64 %55
  %57 = sext i32 %3 to i64
  %58 = getelementptr inbounds i16, ptr %56, i64 %57
  %59 = load i16, ptr %58, align 2, !tbaa !134
  %60 = uitofp i16 %59 to double
  br label %132

61:                                               ; preds = %4
  %62 = getelementptr inbounds nuw i8, ptr %0, i64 16
  %63 = load ptr, ptr %62, align 8, !tbaa !132
  %64 = sext i32 %1 to i64
  %65 = getelementptr inbounds nuw i8, ptr %0, i64 72
  %66 = load ptr, ptr %65, align 8, !tbaa !133
  %67 = load i64, ptr %66, align 8, !tbaa !64
  %68 = mul i64 %67, %64
  %69 = getelementptr inbounds nuw i8, ptr %63, i64 %68
  %70 = sext i32 %2 to i64
  %71 = getelementptr inbounds nuw i8, ptr %66, i64 8
  %72 = load i64, ptr %71, align 8, !tbaa !64
  %73 = mul i64 %72, %70
  %74 = getelementptr inbounds nuw i8, ptr %69, i64 %73
  %75 = sext i32 %3 to i64
  %76 = getelementptr inbounds i16, ptr %74, i64 %75
  %77 = load i16, ptr %76, align 2, !tbaa !134
  %78 = sitofp i16 %77 to double
  br label %132

79:                                               ; preds = %4
  %80 = getelementptr inbounds nuw i8, ptr %0, i64 16
  %81 = load ptr, ptr %80, align 8, !tbaa !132
  %82 = sext i32 %1 to i64
  %83 = getelementptr inbounds nuw i8, ptr %0, i64 72
  %84 = load ptr, ptr %83, align 8, !tbaa !133
  %85 = load i64, ptr %84, align 8, !tbaa !64
  %86 = mul i64 %85, %82
  %87 = getelementptr inbounds nuw i8, ptr %81, i64 %86
  %88 = sext i32 %2 to i64
  %89 = getelementptr inbounds nuw i8, ptr %84, i64 8
  %90 = load i64, ptr %89, align 8, !tbaa !64
  %91 = mul i64 %90, %88
  %92 = getelementptr inbounds nuw i8, ptr %87, i64 %91
  %93 = sext i32 %3 to i64
  %94 = getelementptr inbounds i32, ptr %92, i64 %93
  %95 = load i32, ptr %94, align 4, !tbaa !136
  %96 = sitofp i32 %95 to double
  br label %132

97:                                               ; preds = %4
  %98 = getelementptr inbounds nuw i8, ptr %0, i64 16
  %99 = load ptr, ptr %98, align 8, !tbaa !132
  %100 = sext i32 %1 to i64
  %101 = getelementptr inbounds nuw i8, ptr %0, i64 72
  %102 = load ptr, ptr %101, align 8, !tbaa !133
  %103 = load i64, ptr %102, align 8, !tbaa !64
  %104 = mul i64 %103, %100
  %105 = getelementptr inbounds nuw i8, ptr %99, i64 %104
  %106 = sext i32 %2 to i64
  %107 = getelementptr inbounds nuw i8, ptr %102, i64 8
  %108 = load i64, ptr %107, align 8, !tbaa !64
  %109 = mul i64 %108, %106
  %110 = getelementptr inbounds nuw i8, ptr %105, i64 %109
  %111 = sext i32 %3 to i64
  %112 = getelementptr inbounds float, ptr %110, i64 %111
  %113 = load float, ptr %112, align 4, !tbaa !137
  %114 = fpext float %113 to double
  br label %132

115:                                              ; preds = %4
  %116 = getelementptr inbounds nuw i8, ptr %0, i64 16
  %117 = load ptr, ptr %116, align 8, !tbaa !132
  %118 = sext i32 %1 to i64
  %119 = getelementptr inbounds nuw i8, ptr %0, i64 72
  %120 = load ptr, ptr %119, align 8, !tbaa !133
  %121 = load i64, ptr %120, align 8, !tbaa !64
  %122 = mul i64 %121, %118
  %123 = getelementptr inbounds nuw i8, ptr %117, i64 %122
  %124 = sext i32 %2 to i64
  %125 = getelementptr inbounds nuw i8, ptr %120, i64 8
  %126 = load i64, ptr %125, align 8, !tbaa !64
  %127 = mul i64 %126, %124
  %128 = getelementptr inbounds nuw i8, ptr %123, i64 %127
  %129 = sext i32 %3 to i64
  %130 = getelementptr inbounds double, ptr %128, i64 %129
  %131 = load double, ptr %130, align 8, !tbaa !139
  br label %132

default.unreachable:                              ; preds = %4
  unreachable

132:                                              ; preds = %4, %115, %97, %79, %61, %43, %25, %7
  %.0 = phi double [ %131, %115 ], [ %114, %97 ], [ %96, %79 ], [ %78, %61 ], [ %60, %43 ], [ %42, %25 ], [ %24, %7 ], [ 0.000000e+00, %4 ]
  ret double %.0
}